; Function Attrs: nounwind uwtable
define ptr @Abc_NtkRetimeWithClassesAig(ptr noundef %0, ptr noundef %1, ptr noundef writeonly captures(none) initializes((0, 8)) %2, i32 noundef %3) local_unnamed_addr #2 {
  %5 = tail call ptr @Gia_ManFromAigSimple(ptr noundef %0) #12
  %6 = getelementptr inbounds nuw i8, ptr %5, i64 440
  store ptr %1, ptr %6, align 8, !tbaa !79
  %7 = tail call ptr @Gia_ManRetimeForward(ptr noundef %5, i32 noundef 10, i32 noundef %3) #12
  %8 = getelementptr inbounds nuw i8, ptr %7, i64 440
  %9 = load ptr, ptr %8, align 8, !tbaa !79
  store ptr %9, ptr %2, align 8, !tbaa !93
  store ptr null, ptr %8, align 8, !tbaa !79
  %10 = tail call ptr @Gia_ManToAig(ptr noundef %7, i32 noundef 0) #12
  tail call void @Gia_ManStop(ptr noundef %7) #12
  tail call void @Gia_ManStop(ptr noundef %5) #12
  ret ptr %10
}